Certificate:
    Data:
        Version: 3 (0x2)
        Serial Number:
            01:37:f8:16:8d:1a:e5:06:94:57:65:94:e1:8f:d3:17
        Signature Algorithm: sha256WithRSAEncryption
        Issuer: CN=localhost
        Validity
            Not Before: Dec 13 02:06:23 2022 GMT
            Not After : Mar 17 02:06:23 2025 GMT
        Subject: CN=localhost
        Subject Public Key Info:
            Public Key Algorithm: rsaEncryption
                Public-Key: (2048 bit)
                Modulus:
                    00:c3:a5:cb:ea:06:18:bd:36:40:3e:aa:08:e5:1b:
                    3a:86:ae:aa:c6:07:34:fd:87:cd:ab:84:08:f3:a5:
                    86:a4:fd:bc:b6:a2:82:d5:bc:3a:bc:7f:e3:2d:31:
                    25:82:7f:88:e9:44:a4:78:b8:ac:1e:dc:25:da:36:
                    34:a9:d0:ed:ba:75:a4:4f:c3:9c:f9:ca:b1:f9:81:
                    62:36:64:aa:43:e8:31:b2:2f:6f:2c:11:82:23:bd:
                    81:e0:9d:ba:74:dc:aa:31:9b:f7:d5:04:15:66:c1:
                    2d:29:49:17:a0:a3:be:4a:78:5b:b0:d7:30:df:de:
                    35:4f:14:e1:65:43:a9:33:ad:3f:b0:bd:35:cc:24:
                    72:1c:40:41:cf:12:be:55:69:1b:65:b5:60:3f:a3:
                    f5:2a:77:8e:00:6d:e9:c7:8e:14:84:35:f8:57:8a:
                    0d:d4:c2:4a:6f:fc:b0:c2:06:29:a2:64:de:46:71:
                    b1:1c:56:10:dc:51:3e:ad:2e:13:47:4d:d0:89:34:
                    97:31:72:2b:d2:6f:2c:96:d8:7a:9b:58:4c:da:ea:
                    78:31:b5:6e:c1:6e:1e:7f:85:fe:2b:a9:84:a7:22:
                    78:7e:95:2b:ac:35:42:15:00:a3:25:80:e3:1a:5b:
                    66:ca:f1:90:e8:b9:62:98:f9:cd:a7:b2:e0:c2:f1:
                    24:87
                Exponent: 65537 (0x10001)
        X509v3 extensions:
            X509v3 Basic Constraints: 
                CA:FALSE
            X509v3 Subject Key Identifier: 
                3B:EB:9E:DF:AD:15:8D:64:92:00:B1:5A:4F:11:F8:85:AF:13:A6:6B
            X509v3 Authority Key Identifier: 
                keyid:32:66:11:CD:4C:F2:48:6B:E5:9D:D8:11:80:EA:34:36:4B:DA:FC:4E
                DirName:/CN=localhost
                serial:6F:08:F6:67:45:AE:F1:22:82:98:60:6E:A7:47:49:B1:E6:97:BF:D8
            X509v3 Extended Key Usage: 
                TLS Web Server Authentication
            X509v3 Key Usage: 
                Digital Signature, Key Encipherment
            X509v3 Subject Alternative Name: 
                DNS:localhost
    Signature Algorithm: sha256WithRSAEncryption
    Signature Value:
        75:ce:6a:a5:5f:d2:1a:21:fb:f4:5f:bd:47:44:1b:f7:2b:75:
        b8:3f:55:67:f1:86:6b:66:5d:28:e8:ce:21:f7:61:4d:7b:32:
        96:10:39:3d:20:db:ca:6b:cb:24:e3:b0:94:f0:49:4e:45:7f:
        15:ac:d6:8d:fb:a0:4a:c5:60:2c:1b:25:44:63:8a:61:ef:ee:
        e6:bc:0c:1e:f4:7f:cb:f3:d7:13:44:16:f2:68:d8:3c:da:17:
        27:6e:3e:11:8d:31:8f:b2:c1:3f:c1:3f:e7:98:1d:9b:42:04:
        72:e9:07:c1:2d:ed:53:be:3f:fc:78:5c:3f:b5:59:fa:5f:21:
        a0:1b:e4:da:cd:7a:09:3a:d7:8a:dd:7d:1d:6c:e4:fc:14:41:
        65:3a:90:bf:5f:91:fb:87:1c:35:45:f9:d9:a9:39:9a:1a:1b:
        08:57:37:84:ea:f6:a2:06:0c:08:c4:cd:b4:46:e5:7d:a3:bd:
        91:e9:fd:f1:c4:02:b3:ea:9b:9f:e5:dd:1b:8a:e9:15:6e:af:
        9a:f8:98:e9:c1:da:d0:ed:74:70:de:23:4b:9c:fd:4d:e8:0d:
        bf:aa:90:6b:84:b7:6c:78:5b:65:67:18:98:aa:b4:39:c3:43:
        da:80:be:c0:19:4f:aa:1b:1e:f5:d0:ee:24:5f:9e:3f:5c:43:
        41:a8:d7:df
-----BEGIN CERTIFICATE-----
MIIDaTCCAlGgAwIBAgIQATf4Fo0a5QaUV2WU4Y/TFzANBgkqhkiG9w0BAQsFADAU
MRIwEAYDVQQDDAlsb2NhbGhvc3QwHhcNMjIxMjEzMDIwNjIzWhcNMjUwMzE3MDIw
NjIzWjAUMRIwEAYDVQQDDAlsb2NhbGhvc3QwggEiMA0GCSqGSIb3DQEBAQUAA4IB
DwAwggEKAoIBAQDDpcvqBhi9NkA+qgjlGzqGrqrGBzT9h82rhAjzpYak/by2ooLV
vDq8f+MtMSWCf4jpRKR4uKwe3CXaNjSp0O26daRPw5z5yrH5gWI2ZKpD6DGyL28s
EYIjvYHgnbp03Koxm/fVBBVmwS0pSRego75KeFuw1zDf3jVPFOFlQ6kzrT+wvTXM
JHIcQEHPEr5VaRtltWA/o/Uqd44AbenHjhSENfhXig3Uwkpv/LDCBimiZN5GcbEc
VhDcUT6tLhNHTdCJNJcxcivSbyyW2HqbWEza6ngxtW7Bbh5/hf4rqYSnInh+lSus
NUIVAKMlgOMaW2bK8ZDouWKY+c2nsuDC8SSHAgMBAAGjgbYwgbMwCQYDVR0TBAIw
ADAdBgNVHQ4EFgQUO+ue360VjWSSALFaTxH4ha8TpmswTwYDVR0jBEgwRoAUMmYR
zUzySGvlndgRgOo0Nkva/E6hGKQWMBQxEjAQBgNVBAMMCWxvY2FsaG9zdIIUbwj2
Z0Wu8SKCmGBup0dJseaXv9gwEwYDVR0lBAwwCgYIKwYBBQUHAwEwCwYDVR0PBAQD
AgWgMBQGA1UdEQQNMAuCCWxvY2FsaG9zdDANBgkqhkiG9w0BAQsFAAOCAQEAdc5q
pV/SGiH79F+9R0Qb9yt1uD9VZ/GGa2ZdKOjOIfdhTXsylhA5PSDbymvLJOOwlPBJ
TkV/FazWjfugSsVgLBslRGOKYe/u5rwMHvR/y/PXE0QW8mjYPNoXJ24+EY0xj7LB
P8E/55gdm0IEcukHwS3tU74//HhcP7VZ+l8hoBvk2s16CTrXit19HWzk/BRBZTqQ
v1+R+4ccNUX52ak5mhobCFc3hOr2ogYMCMTNtEblfaO9ken98cQCs+qbn+XdG4rp
FW6vmviY6cHa0O10cN4jS5z9TegNv6qQa4S3bHhbZWcYmKq0OcND2oC+wBlPqhse
9dDuJF+eP1xDQajX3w==
-----END CERTIFICATE-----
